; Function Attrs: nounwind uwtable
define hidden range(i32 0, 2) i32 @uv__iou_fs_link(ptr noundef %0, ptr noundef %1) local_unnamed_addr #0 {
  %3 = tail call i32 @uv__kernel_version()
  %4 = icmp ult i32 %3, 331520
  br i1 %4, label %uv__iou_submit.exit, label %5

5:                                                ; preds = %2
  %6 = getelementptr inbounds nuw i8, ptr %0, i64 40
  %7 = load ptr, ptr %6, align 8
  %8 = getelementptr inbounds nuw i8, ptr %7, i64 320
  %9 = tail call fastcc ptr @uv__iou_get_sqe(ptr noundef nonnull %8, ptr noundef %0, ptr noundef %1)
  %10 = icmp eq ptr %9, null
  br i1 %10, label %uv__iou_submit.exit, label %11

11:                                               ; preds = %5
  %12 = getelementptr inbounds nuw i8, ptr %1, i64 104
  %13 = load ptr, ptr %12, align 8
  %14 = ptrtoint ptr %13 to i64
  %15 = getelementptr inbounds nuw i8, ptr %9, i64 16
  store i64 %14, ptr %15, align 8
  %16 = getelementptr inbounds nuw i8, ptr %9, i64 4
  store i32 -100, ptr %16, align 4
  %17 = getelementptr inbounds nuw i8, ptr %1, i64 272
  %18 = load ptr, ptr %17, align 8
  %19 = ptrtoint ptr %18 to i64
  %20 = getelementptr inbounds nuw i8, ptr %9, i64 8
  store i64 %19, ptr %20, align 8
  %21 = getelementptr inbounds nuw i8, ptr %9, i64 24
  store i32 -100, ptr %21, align 8
  store i8 39, ptr %9, align 8
  %22 = getelementptr inbounds nuw i8, ptr %7, i64 328
  %23 = load ptr, ptr %22, align 8
  %24 = load i32, ptr %23, align 4
  %25 = add i32 %24, 1
  store atomic i32 %25, ptr %23 release, align 4
  %26 = getelementptr inbounds nuw i8, ptr %7, i64 344
  %27 = load ptr, ptr %26, align 8
  %28 = load atomic i32, ptr %27 acquire, align 4
  %29 = and i32 %28, 1
  %.not.i = icmp eq i32 %29, 0
  br i1 %.not.i, label %uv__iou_submit.exit, label %30

30:                                               ; preds = %11
  %31 = getelementptr inbounds nuw i8, ptr %7, i64 432
  %32 = load i32, ptr %31, align 8
  %33 = tail call i64 (i64, ...) @syscall(i64 noundef 426, i32 noundef %32, i32 noundef 0, i32 noundef 0, i32 noundef 2, ptr noundef null, i64 noundef 0) #17
  %34 = and i64 %33, 4294967295
  %.not6.i = icmp eq i64 %34, 0
  br i1 %.not6.i, label %uv__iou_submit.exit, label %35

35:                                               ; preds = %30
  %36 = tail call ptr @__errno_location() #19
  %37 = load i32, ptr %36, align 4
  %.not7.i = icmp eq i32 %37, 130
  br i1 %.not7.i, label %uv__iou_submit.exit, label %38

38:                                               ; preds = %35
  tail call void @perror(ptr noundef nonnull @.str.25) #21
  br label %uv__iou_submit.exit

uv__iou_submit.exit:                              ; preds = %38, %35, %30, %11, %5, %2
  %.0 = phi i32 [ 0, %2 ], [ 0, %5 ], [ 1, %11 ], [ 1, %30 ], [ 1, %35 ], [ 1, %38 ]
  ret i32 %.0
}